target datalayout = "e-m:e-p270:32:32-p271:32:32-p272:64:64-i64:64-i128:128-f80:128-n8:16:32:64-S128"
target triple = "x86_64-pc-linux-gnu"

%struct.ossl_param_st = type { ptr, i32, ptr, i64, i64 }
%struct.xorkey_st = type { [32 x i8], [32 x i8], i32, i32, ptr, %struct.CRYPTO_REF_COUNT }
%struct.CRYPTO_REF_COUNT = type { i32 }

@.str.16 = private unnamed_addr constant [16 x i8] c"encoded-pub-key\00", align 1

; Function Attrs: nounwind uwtable
define internal i32 @xor_set_params(ptr noundef %0, ptr noundef %1) #0 {
  %3 = alloca i32, align 4
  %4 = alloca ptr, align 8
  %5 = alloca ptr, align 8
  %6 = alloca ptr, align 8
  %7 = alloca ptr, align 8
  %8 = alloca i32, align 4
  store ptr %0, ptr %4, align 8, !tbaa !13
  store ptr %1, ptr %5, align 8, !tbaa !43
  call void @llvm.lifetime.start.p0(i64 8, ptr %6) #8
  %9 = load ptr, ptr %4, align 8, !tbaa !13
  store ptr %9, ptr %6, align 8, !tbaa !41
  call void @llvm.lifetime.start.p0(i64 8, ptr %7) #8
  %10 = load ptr, ptr %5, align 8, !tbaa !43
  %11 = call ptr @OSSL_PARAM_locate_const(ptr noundef %10, ptr noundef @.str.16)
  store ptr %11, ptr %7, align 8, !tbaa !43
  %12 = load ptr, ptr %7, align 8, !tbaa !43
  %13 = icmp ne ptr %12, null
  br i1 %13, label %14, label %34

14:                                               ; preds = %2
  %15 = load ptr, ptr %7, align 8, !tbaa !43
  %16 = getelementptr inbounds nuw %struct.ossl_param_st, ptr %15, i32 0, i32 1
  %17 = load i32, ptr %16, align 8, !tbaa !50
  %18 = icmp ne i32 %17, 5
  br i1 %18, label %24, label %19

19:                                               ; preds = %14
  %20 = load ptr, ptr %7, align 8, !tbaa !43
  %21 = getelementptr inbounds nuw %struct.ossl_param_st, ptr %20, i32 0, i32 3
  %22 = load i64, ptr %21, align 8, !tbaa !39
  %23 = icmp ne i64 %22, 32
  br i1 %23, label %24, label %25

24:                                               ; preds = %19, %14
  store i32 0, ptr %3, align 4
  store i32 1, ptr %8, align 4
  br label %35

25:                                               ; preds = %19
  %26 = load ptr, ptr %6, align 8, !tbaa !41
  %27 = getelementptr inbounds nuw %struct.xorkey_st, ptr %26, i32 0, i32 1
  %28 = getelementptr inbounds [32 x i8], ptr %27, i64 0, i64 0
  %29 = load ptr, ptr %7, align 8, !tbaa !43
  %30 = getelementptr inbounds nuw %struct.ossl_param_st, ptr %29, i32 0, i32 2
  %31 = load ptr, ptr %30, align 8, !tbaa !37
  call void @llvm.memcpy.p0.p0.i64(ptr align 8 %28, ptr align 1 %31, i64 32, i1 false)
  %32 = load ptr, ptr %6, align 8, !tbaa !41
  %33 = getelementptr inbounds nuw %struct.xorkey_st, ptr %32, i32 0, i32 3
  store i32 1, ptr %33, align 4, !tbaa !56
  br label %34

34:                                               ; preds = %25, %2
  store i32 1, ptr %3, align 4
  store i32 1, ptr %8, align 4
  br label %35

35:                                               ; preds = %34, %24
  call void @llvm.lifetime.end.p0(i64 8, ptr %7) #8
  call void @llvm.lifetime.end.p0(i64 8, ptr %6) #8
  %36 = load i32, ptr %3, align 4
  ret i32 %36
}