; Function Attrs: nounwind uwtable
define internal range(i32 0, 2) i32 @xor_set_params(ptr noundef writeonly captures(none) %0, ptr noundef %1) #0 {
  %3 = tail call ptr @OSSL_PARAM_locate_const(ptr noundef %1, ptr noundef nonnull @.str.16) #16
  %.not = icmp eq ptr %3, null
  br i1 %.not, label %15, label %4

4:                                                ; preds = %2
  %5 = getelementptr inbounds nuw i8, ptr %3, i64 8
  %6 = load i32, ptr %5, align 8, !tbaa !38
  %.not9 = icmp eq i32 %6, 5
  br i1 %.not9, label %7, label %15

7:                                                ; preds = %4
  %8 = getelementptr inbounds nuw i8, ptr %3, i64 24
  %9 = load i64, ptr %8, align 8, !tbaa !31
  %.not10 = icmp eq i64 %9, 32
  br i1 %.not10, label %10, label %15

10:                                               ; preds = %7
  %11 = getelementptr inbounds nuw i8, ptr %0, i64 32
  %12 = getelementptr inbounds nuw i8, ptr %3, i64 16
  %13 = load ptr, ptr %12, align 8, !tbaa !28
  tail call void @llvm.memcpy.p0.p0.i64(ptr noundef nonnull align 8 dereferenceable(32) %11, ptr noundef nonnull align 1 dereferenceable(32) %13, i64 32, i1 false)
  %14 = getelementptr inbounds nuw i8, ptr %0, i64 68
  store i32 1, ptr %14, align 4, !tbaa !43
  br label %15

15:                                               ; preds = %2, %10, %4, %7
  %.0 = phi i32 [ 0, %7 ], [ 0, %4 ], [ 1, %10 ], [ 1, %2 ]
  ret i32 %.0
}